target datalayout = "e-m:e-p270:32:32-p271:32:32-p272:64:64-i64:64-i128:128-f80:128-n8:16:32:64-S128"
target triple = "x86_64-pc-linux-gnu"

%struct.IDAMemRec = type { double, ptr, ptr, i32, double, double, ptr, i32, ptr, ptr, i32, ptr, ptr, i32, i32, double, double, ptr, i32, i32, i32, ptr, ptr, i32, ptr, ptr, ptr, i32, double, i32, i32, double, ptr, ptr, i32, ptr, ptr, i32, i32, i32, double, ptr, ptr, [6 x ptr], [6 x double], [6 x double], [6 x double], [6 x double], [6 x double], ptr, ptr, ptr, ptr, ptr, ptr, ptr, ptr, ptr, ptr, ptr, ptr, ptr, ptr, ptr, [6 x ptr], ptr, ptr, ptr, ptr, [6 x ptr], ptr, ptr, ptr, ptr, ptr, ptr, ptr, ptr, ptr, ptr, ptr, ptr, ptr, ptr, [6 x ptr], ptr, ptr, ptr, ptr, ptr, double, ptr, ptr, i32, i32, i32, i32, i32, i32, i32, double, double, double, i32, double, i32, i32, i32, i32, double, double, double, double, double, double, double, double, double, double, double, double, double, double, i32, i32, i32, i32, i32, i64, double, i32, i64, i64, i64, i64, i64, i64, i64, i64, i64, i64, i64, i64, i64, i64, i64, i64, i64, i64, i64, i64, i64, i64, i64, i64, ptr, ptr, ptr, i32, i32, i32, i32, i32, i32, i32, i32, i32, i32, i32, i32, i32, ptr, ptr, ptr, ptr, ptr, ptr, i32, i32, i32, i32, i32, i32, double, double, double, ptr, i32, ptr, ptr, double, double, double, ptr, ptr, ptr, double, double, i32, i32, i64, ptr, i32, i32, ptr, i32 }
%struct.IDAadjMemRec = type { double, double, i32, i32, double, ptr, i32, ptr, i32, ptr, ptr, i32, i64, ptr, i64, i32, ptr, ptr, ptr, ptr, i32, i32, i32, i32, i32, [6 x ptr], [6 x ptr], [6 x double], ptr, ptr, ptr, ptr, i64 }
%struct.IDABMemRec = type { i32, double, ptr, i32, i32, ptr, ptr, ptr, ptr, ptr, ptr, ptr, ptr, ptr, double, ptr, ptr, ptr }

@.str = private unnamed_addr constant [5 x i8] c"IDAA\00", align 1
@.str.2 = private unnamed_addr constant [24 x i8] c"ida_mem = NULL illegal.\00", align 1
@.str.7 = private unnamed_addr constant [51 x i8] c"Illegal attempt to call before calling IDAadjInit.\00", align 1
@.str.16 = private unnamed_addr constant [25 x i8] c"Illegal value for which.\00", align 1
@.str.26 = private unnamed_addr constant [11 x i8] c"IDACalcICB\00", align 1

; Function Attrs: nounwind uwtable
define i32 @IDACalcICB(ptr noundef %0, i32 noundef %1, double noundef %2, ptr noundef %3, ptr noundef %4) #0 {
  %6 = alloca i32, align 4
  %7 = alloca ptr, align 8
  %8 = alloca i32, align 4
  %9 = alloca double, align 8
  %10 = alloca ptr, align 8
  %11 = alloca ptr, align 8
  %12 = alloca ptr, align 8
  %13 = alloca ptr, align 8
  %14 = alloca ptr, align 8
  %15 = alloca ptr, align 8
  %16 = alloca i32, align 4
  %17 = alloca i32, align 4
  store ptr %0, ptr %7, align 8, !tbaa !3
  store i32 %1, ptr %8, align 4, !tbaa !9
  store double %2, ptr %9, align 8, !tbaa !73
  store ptr %3, ptr %10, align 8, !tbaa !74
  store ptr %4, ptr %11, align 8, !tbaa !74
  call void @llvm.lifetime.start.p0(i64 8, ptr %12) #6
  call void @llvm.lifetime.start.p0(i64 8, ptr %13) #6
  call void @llvm.lifetime.start.p0(i64 8, ptr %14) #6
  call void @llvm.lifetime.start.p0(i64 8, ptr %15) #6
  call void @llvm.lifetime.start.p0(i64 4, ptr %16) #6
  %18 = load ptr, ptr %7, align 8, !tbaa !3
  %19 = icmp eq ptr %18, null
  br i1 %19, label %20, label %21

20:                                               ; preds = %5
  call void (ptr, i32, ptr, ptr, ptr, ...) @IDAProcessError(ptr noundef null, i32 noundef -20, ptr noundef @.str, ptr noundef @.str.26, ptr noundef @.str.2)
  store i32 -20, ptr %6, align 4
  store i32 1, ptr %17, align 4
  br label %81

21:                                               ; preds = %5
  %22 = load ptr, ptr %7, align 8, !tbaa !3
  store ptr %22, ptr %12, align 8, !tbaa !11
  %23 = load ptr, ptr %12, align 8, !tbaa !11
  %24 = getelementptr inbounds nuw %struct.IDAMemRec, ptr %23, i32 0, i32 205
  %25 = load i32, ptr %24, align 8, !tbaa !51
  %26 = icmp eq i32 %25, 0
  br i1 %26, label %27, label %29

27:                                               ; preds = %21
  %28 = load ptr, ptr %12, align 8, !tbaa !11
  call void (ptr, i32, ptr, ptr, ptr, ...) @IDAProcessError(ptr noundef %28, i32 noundef -101, ptr noundef @.str, ptr noundef @.str.26, ptr noundef @.str.7)
  store i32 -101, ptr %6, align 4
  store i32 1, ptr %17, align 4
  br label %81

29:                                               ; preds = %21
  %30 = load ptr, ptr %12, align 8, !tbaa !11
  %31 = getelementptr inbounds nuw %struct.IDAMemRec, ptr %30, i32 0, i32 204
  %32 = load ptr, ptr %31, align 8, !tbaa !15
  store ptr %32, ptr %13, align 8, !tbaa !13
  %33 = load i32, ptr %8, align 4, !tbaa !9
  %34 = load ptr, ptr %13, align 8, !tbaa !13
  %35 = getelementptr inbounds nuw %struct.IDAadjMemRec, ptr %34, i32 0, i32 6
  %36 = load i32, ptr %35, align 8, !tbaa !46
  %37 = icmp sge i32 %33, %36
  br i1 %37, label %38, label %40

38:                                               ; preds = %29
  %39 = load ptr, ptr %12, align 8, !tbaa !11
  call void (ptr, i32, ptr, ptr, ptr, ...) @IDAProcessError(ptr noundef %39, i32 noundef -22, ptr noundef @.str, ptr noundef @.str.26, ptr noundef @.str.16)
  store i32 -22, ptr %6, align 4
  store i32 1, ptr %17, align 4
  br label %81

40:                                               ; preds = %29
  %41 = load ptr, ptr %13, align 8, !tbaa !13
  %42 = getelementptr inbounds nuw %struct.IDAadjMemRec, ptr %41, i32 0, i32 5
  %43 = load ptr, ptr %42, align 8, !tbaa !44
  store ptr %43, ptr %14, align 8, !tbaa !132
  br label %44

44:                                               ; preds = %54, %40
  %45 = load ptr, ptr %14, align 8, !tbaa !132
  %46 = icmp ne ptr %45, null
  br i1 %46, label %47, label %58

47:                                               ; preds = %44
  %48 = load i32, ptr %8, align 4, !tbaa !9
  %49 = load ptr, ptr %14, align 8, !tbaa !132
  %50 = getelementptr inbounds nuw %struct.IDABMemRec, ptr %49, i32 0, i32 0
  %51 = load i32, ptr %50, align 8, !tbaa !192
  %52 = icmp eq i32 %48, %51
  br i1 %52, label %53, label %54

53:                                               ; preds = %47
  br label %58

54:                                               ; preds = %47
  %55 = load ptr, ptr %14, align 8, !tbaa !132
  %56 = getelementptr inbounds nuw %struct.IDABMemRec, ptr %55, i32 0, i32 17
  %57 = load ptr, ptr %56, align 8, !tbaa !133
  store ptr %57, ptr %14, align 8, !tbaa !132
  br label %44, !llvm.loop !213

58:                                               ; preds = %53, %44
  %59 = load ptr, ptr %14, align 8, !tbaa !132
  %60 = getelementptr inbounds nuw %struct.IDABMemRec, ptr %59, i32 0, i32 2
  %61 = load ptr, ptr %60, align 8, !tbaa !135
  store ptr %61, ptr %15, align 8, !tbaa !3
  %62 = load ptr, ptr %14, align 8, !tbaa !132
  %63 = load ptr, ptr %13, align 8, !tbaa !13
  %64 = getelementptr inbounds nuw %struct.IDAadjMemRec, ptr %63, i32 0, i32 7
  store ptr %62, ptr %64, align 8, !tbaa !45
  %65 = load ptr, ptr %10, align 8, !tbaa !74
  %66 = load ptr, ptr %13, align 8, !tbaa !13
  %67 = getelementptr inbounds nuw %struct.IDAadjMemRec, ptr %66, i32 0, i32 28
  %68 = load ptr, ptr %67, align 8, !tbaa !30
  call void @N_VScale(double noundef 1.000000e+00, ptr noundef %65, ptr noundef %68)
  %69 = load ptr, ptr %11, align 8, !tbaa !74
  %70 = load ptr, ptr %13, align 8, !tbaa !13
  %71 = getelementptr inbounds nuw %struct.IDAadjMemRec, ptr %70, i32 0, i32 29
  %72 = load ptr, ptr %71, align 8, !tbaa !31
  call void @N_VScale(double noundef 1.000000e+00, ptr noundef %69, ptr noundef %72)
  %73 = load ptr, ptr %13, align 8, !tbaa !13
  %74 = getelementptr inbounds nuw %struct.IDAadjMemRec, ptr %73, i32 0, i32 24
  store i32 1, ptr %74, align 8, !tbaa !43
  %75 = load ptr, ptr %15, align 8, !tbaa !3
  %76 = load double, ptr %9, align 8, !tbaa !73
  %77 = call i32 @IDACalcIC(ptr noundef %75, i32 noundef 1, double noundef %76)
  store i32 %77, ptr %16, align 4, !tbaa !9
  %78 = load ptr, ptr %13, align 8, !tbaa !13
  %79 = getelementptr inbounds nuw %struct.IDAadjMemRec, ptr %78, i32 0, i32 24
  store i32 0, ptr %79, align 8, !tbaa !43
  %80 = load i32, ptr %16, align 4, !tbaa !9
  store i32 %80, ptr %6, align 4
  store i32 1, ptr %17, align 4
  br label %81

81:                                               ; preds = %58, %38, %27, %20
  call void @llvm.lifetime.end.p0(i64 4, ptr %16) #6
  call void @llvm.lifetime.end.p0(i64 8, ptr %15) #6
  call void @llvm.lifetime.end.p0(i64 8, ptr %14) #6
  call void @llvm.lifetime.end.p0(i64 8, ptr %13) #6
  call void @llvm.lifetime.end.p0(i64 8, ptr %12) #6
  %82 = load i32, ptr %6, align 4
  ret i32 %82
}